#include <math.h>
#include <stdio.h>
#include <stdlib.h>
#include <string.h>

int main()
{
	int n,k,a[1000],b,x=0,flag=0,i,j;
	scanf("%d %d",&n,&k);
	for(i=0;i<n;i++)
	{
		scanf("%d",&a[i]);
	}
	for(i=0;i<n;i++)
	{
		for(j=0;j<n;j++)
		{
			if(i!=j)
			{
				b=a[i]+a[j];
				if(b==k)
				{
					printf("yes");
					flag=1;
					break;
				}
			}
		}
		if(flag==1)
		{
			break;
		}
	}
	if(flag==0)
	{
		printf("no");
	}
	return 0;
}

