; ModuleID = '3/881.c'
source_filename = "3/881.c"
target datalayout = "e-m:e-p270:32:32-p271:32:32-p272:64:64-i64:64-f80:128-n8:16:32:64-S128"
target triple = "x86_64-pc-linux-gnu"

@.str = private unnamed_addr constant [6 x i8] c"%d %d\00", align 1
@.str.1 = private unnamed_addr constant [3 x i8] c"%d\00", align 1
@.str.2 = private unnamed_addr constant [4 x i8] c"yes\00", align 1
@.str.3 = private unnamed_addr constant [3 x i8] c"no\00", align 1

; Function Attrs: noinline nounwind uwtable
define dso_local i32 @main() #0 {
  %1 = alloca i32, align 4
  %2 = alloca i32, align 4
  %3 = alloca i32, align 4
  %4 = alloca [1000 x i32], align 16
  %5 = alloca i32, align 4
  %6 = alloca i32, align 4
  %7 = alloca i32, align 4
  %8 = alloca i32, align 4
  %9 = alloca i32, align 4
  store i32 0, i32* %1, align 4
  store i32 0, i32* %6, align 4
  store i32 0, i32* %7, align 4
  %10 = call i32 (i8*, ...) @__isoc99_scanf(i8* getelementptr inbounds ([6 x i8], [6 x i8]* @.str, i64 0, i64 0), i32* %2, i32* %3)
  store i32 0, i32* %8, align 4
  br label %11

11:                                               ; preds = %20, %0
  %12 = load i32, i32* %8, align 4
  %13 = load i32, i32* %2, align 4
  %14 = icmp slt i32 %12, %13
  br i1 %14, label %15, label %23

15:                                               ; preds = %11
  %16 = load i32, i32* %8, align 4
  %17 = sext i32 %16 to i64
  %18 = getelementptr inbounds [1000 x i32], [1000 x i32]* %4, i64 0, i64 %17
  %19 = call i32 (i8*, ...) @__isoc99_scanf(i8* getelementptr inbounds ([3 x i8], [3 x i8]* @.str.1, i64 0, i64 0), i32* %18)
  br label %20

20:                                               ; preds = %15
  %21 = load i32, i32* %8, align 4
  %22 = add nsw i32 %21, 1
  store i32 %22, i32* %8, align 4
  br label %11

23:                                               ; preds = %11
  store i32 0, i32* %8, align 4
  br label %24

24:                                               ; preds = %62, %23
  %25 = load i32, i32* %8, align 4
  %26 = load i32, i32* %2, align 4
  %27 = icmp slt i32 %25, %26
  br i1 %27, label %28, label %65

28:                                               ; preds = %24
  store i32 0, i32* %9, align 4
  br label %29

29:                                               ; preds = %54, %28
  %30 = load i32, i32* %9, align 4
  %31 = load i32, i32* %2, align 4
  %32 = icmp slt i32 %30, %31
  br i1 %32, label %33, label %57

33:                                               ; preds = %29
  %34 = load i32, i32* %8, align 4
  %35 = load i32, i32* %9, align 4
  %36 = icmp ne i32 %34, %35
  br i1 %36, label %37, label %53

37:                                               ; preds = %33
  %38 = load i32, i32* %8, align 4
  %39 = sext i32 %38 to i64
  %40 = getelementptr inbounds [1000 x i32], [1000 x i32]* %4, i64 0, i64 %39
  %41 = load i32, i32* %40, align 4
  %42 = load i32, i32* %9, align 4
  %43 = sext i32 %42 to i64
  %44 = getelementptr inbounds [1000 x i32], [1000 x i32]* %4, i64 0, i64 %43
  %45 = load i32, i32* %44, align 4
  %46 = add nsw i32 %41, %45
  store i32 %46, i32* %5, align 4
  %47 = load i32, i32* %5, align 4
  %48 = load i32, i32* %3, align 4
  %49 = icmp eq i32 %47, %48
  br i1 %49, label %50, label %52

50:                                               ; preds = %37
  %51 = call i32 (i8*, ...) @printf(i8* getelementptr inbounds ([4 x i8], [4 x i8]* @.str.2, i64 0, i64 0))
  store i32 1, i32* %7, align 4
  br label %57

52:                                               ; preds = %37
  br label %53

53:                                               ; preds = %52, %33
  br label %54

54:                                               ; preds = %53
  %55 = load i32, i32* %9, align 4
  %56 = add nsw i32 %55, 1
  store i32 %56, i32* %9, align 4
  br label %29

57:                                               ; preds = %50, %29
  %58 = load i32, i32* %7, align 4
  %59 = icmp eq i32 %58, 1
  br i1 %59, label %60, label %61

60:                                               ; preds = %57
  br label %65

61:                                               ; preds = %57
  br label %62

62:                                               ; preds = %61
  %63 = load i32, i32* %8, align 4
  %64 = add nsw i32 %63, 1
  store i32 %64, i32* %8, align 4
  br label %24

65:                                               ; preds = %60, %24
  %66 = load i32, i32* %7, align 4
  %67 = icmp eq i32 %66, 0
  br i1 %67, label %68, label %70

68:                                               ; preds = %65
  %69 = call i32 (i8*, ...) @printf(i8* getelementptr inbounds ([3 x i8], [3 x i8]* @.str.3, i64 0, i64 0))
  br label %70

70:                                               ; preds = %68, %65
  ret i32 0
}

declare dso_local i32 @__isoc99_scanf(i8*, ...) #1

declare dso_local i32 @printf(i8*, ...) #1


!llvm.module.flags = !{!0}
!llvm.ident = !{!1}

!0 = !{i32 1, !"wchar_size", i32 4}
!1 = !{!"clang version 10.0.0-4ubuntu1 "}
