; ModuleID = 'source-C-CXX/2/881.c'
source_filename = "source-C-CXX/2/881.c"
target datalayout = "e-m:e-p270:32:32-p271:32:32-p272:64:64-i64:64-f80:128-n8:16:32:64-S128"
target triple = "x86_64-pc-linux-gnu"

@.str = private unnamed_addr constant [6 x i8] c"%d %d\00", align 1
@.str.1 = private unnamed_addr constant [3 x i8] c"%d\00", align 1
@.str.2 = private unnamed_addr constant [4 x i8] c"yes\00", align 1
@.str.3 = private unnamed_addr constant [3 x i8] c"no\00", align 1

; Function Attrs: nofree nounwind sspstrong uwtable
define dso_local i32 @main() local_unnamed_addr #0 {
  %1 = alloca i32, align 4
  %2 = alloca i32, align 4
  %3 = alloca [1000 x i32], align 16
  %4 = bitcast i32* %1 to i8*
  call void @llvm.lifetime.start.p0i8(i64 4, i8* nonnull %4) #3
  %5 = bitcast i32* %2 to i8*
  call void @llvm.lifetime.start.p0i8(i64 4, i8* nonnull %5) #3
  %6 = bitcast [1000 x i32]* %3 to i8*
  call void @llvm.lifetime.start.p0i8(i64 4000, i8* nonnull %6) #3
  %7 = call i32 (i8*, ...) @__isoc99_scanf(i8* getelementptr inbounds ([6 x i8], [6 x i8]* @.str, i64 0, i64 0), i32* nonnull %1, i32* nonnull %2)
  %8 = load i32, i32* %1, align 4, !tbaa !5
  %9 = icmp sgt i32 %8, 0
  br i1 %9, label %36, label %46

10:                                               ; preds = %36
  %11 = load i32, i32* %2, align 4
  %12 = icmp sgt i32 %41, 0
  br i1 %12, label %13, label %46

13:                                               ; preds = %10
  %14 = zext i32 %41 to i64
  %15 = zext i32 %41 to i64
  br label %16

16:                                               ; preds = %13, %32
  %17 = phi i64 [ 0, %13 ], [ %33, %32 ]
  %18 = phi i1 [ true, %13 ], [ %34, %32 ]
  %19 = getelementptr inbounds [1000 x i32], [1000 x i32]* %3, i64 0, i64 %17
  br label %20

20:                                               ; preds = %16, %29
  %21 = phi i64 [ 0, %16 ], [ %30, %29 ]
  %22 = icmp eq i64 %17, %21
  br i1 %22, label %29, label %23

23:                                               ; preds = %20
  %24 = load i32, i32* %19, align 4, !tbaa !5
  %25 = getelementptr inbounds [1000 x i32], [1000 x i32]* %3, i64 0, i64 %21
  %26 = load i32, i32* %25, align 4, !tbaa !5
  %27 = add nsw i32 %26, %24
  %28 = icmp eq i32 %27, %11
  br i1 %28, label %44, label %29

29:                                               ; preds = %23, %20
  %30 = add nuw nsw i64 %21, 1
  %31 = icmp eq i64 %30, %15
  br i1 %31, label %32, label %20, !llvm.loop !9

32:                                               ; preds = %29
  %33 = add nuw nsw i64 %17, 1
  %34 = icmp ult i64 %33, %14
  %35 = icmp eq i64 %33, %15
  br i1 %35, label %46, label %16, !llvm.loop !11

36:                                               ; preds = %0, %36
  %37 = phi i64 [ %40, %36 ], [ 0, %0 ]
  %38 = getelementptr inbounds [1000 x i32], [1000 x i32]* %3, i64 0, i64 %37
  %39 = call i32 (i8*, ...) @__isoc99_scanf(i8* getelementptr inbounds ([3 x i8], [3 x i8]* @.str.1, i64 0, i64 0), i32* nonnull %38)
  %40 = add nuw nsw i64 %37, 1
  %41 = load i32, i32* %1, align 4, !tbaa !5
  %42 = sext i32 %41 to i64
  %43 = icmp slt i64 %40, %42
  br i1 %43, label %36, label %10, !llvm.loop !12

44:                                               ; preds = %23
  %45 = call i32 (i8*, ...) @printf(i8* nonnull dereferenceable(1) getelementptr inbounds ([4 x i8], [4 x i8]* @.str.2, i64 0, i64 0))
  br i1 %18, label %48, label %46

46:                                               ; preds = %32, %0, %10, %44
  %47 = call i32 (i8*, ...) @printf(i8* nonnull dereferenceable(1) getelementptr inbounds ([3 x i8], [3 x i8]* @.str.3, i64 0, i64 0))
  br label %48

48:                                               ; preds = %46, %44
  call void @llvm.lifetime.end.p0i8(i64 4000, i8* nonnull %6) #3
  call void @llvm.lifetime.end.p0i8(i64 4, i8* nonnull %5) #3
  call void @llvm.lifetime.end.p0i8(i64 4, i8* nonnull %4) #3
  ret i32 0
}

; Function Attrs: argmemonly mustprogress nofree nosync nounwind willreturn
declare void @llvm.lifetime.start.p0i8(i64 immarg, i8* nocapture) #1

; Function Attrs: nofree nounwind
declare noundef i32 @__isoc99_scanf(i8* nocapture noundef readonly, ...) local_unnamed_addr #2

; Function Attrs: nofree nounwind
declare noundef i32 @printf(i8* nocapture noundef readonly, ...) local_unnamed_addr #2

; Function Attrs: argmemonly mustprogress nofree nosync nounwind willreturn
declare void @llvm.lifetime.end.p0i8(i64 immarg, i8* nocapture) #1


!llvm.module.flags = !{!0, !1, !2, !3}
!llvm.ident = !{!4}

!0 = !{i32 1, !"wchar_size", i32 4}
!1 = !{i32 7, !"PIC Level", i32 2}
!2 = !{i32 7, !"PIE Level", i32 2}
!3 = !{i32 7, !"uwtable", i32 1}
!4 = !{!"clang version 13.0.0"}
!5 = !{!6, !6, i64 0}
!6 = !{!"int", !7, i64 0}
!7 = !{!"omnipotent char", !8, i64 0}
!8 = !{!"Simple C/C++ TBAA"}
!9 = distinct !{!9, !10}
!10 = !{!"llvm.loop.mustprogress"}
!11 = distinct !{!11, !10}
!12 = distinct !{!12, !10}
